; Function Attrs: mustprogress uwtable
define void @_Z4wrapNSt7__cxx1112basic_stringIcSt11char_traitsIcESaIcEEES4_(ptr dead_on_unwind noalias writable sret(%"class.std::__cxx11::basic_string") align 8 %0, ptr nocapture noundef readonly %1, ptr nocapture noundef readonly %2) local_unnamed_addr #4 {
  %4 = alloca [3 x %"class.std::basic_string_view"], align 16
  call void @llvm.lifetime.start.p0(i64 48, ptr nonnull %4)
  %5 = load ptr, ptr %1, align 8, !noalias !4
  %6 = getelementptr inbounds i8, ptr %1, i64 8
  %7 = load i64, ptr %6, align 8, !noalias !4
  store i64 %7, ptr %4, align 16, !noalias !4
  %8 = getelementptr inbounds i8, ptr %4, i64 8
  store ptr %5, ptr %8, align 8, !noalias !4
  %9 = getelementptr inbounds i8, ptr %4, i64 16
  %10 = load ptr, ptr %2, align 8, !noalias !4
  %11 = getelementptr inbounds i8, ptr %2, i64 8
  %12 = load i64, ptr %11, align 8, !noalias !4
  store i64 %12, ptr %9, align 16, !noalias !4
  %13 = getelementptr inbounds i8, ptr %4, i64 24
  store ptr %10, ptr %13, align 8, !noalias !4
  %14 = getelementptr inbounds i8, ptr %4, i64 32
  store i64 4, ptr %14, align 16, !noalias !4
  %15 = getelementptr inbounds i8, ptr %4, i64 40
  store ptr @.str.6, ptr %15, align 8, !noalias !4
  call void @_ZN3nix16concatStringsSepIA3_St17basic_string_viewIcSt11char_traitsIcEEEENSt7__cxx1112basic_stringIcS3_SaIcEEES4_RKT_(ptr dead_on_unwind writable sret(%"class.std::__cxx11::basic_string") align 8 %0, i64 0, ptr null, ptr noundef nonnull align 8 dereferenceable(48) %4)
  call void @llvm.lifetime.end.p0(i64 48, ptr nonnull %4)
  ret void
}